; Function Attrs: nounwind uwtable
define internal ptr @coro_wrapper_throw(ptr noundef readonly captures(none) %0, ptr noundef readonly captures(none) %1, i64 noundef %2) #2 {
  %4 = getelementptr inbounds nuw i8, ptr %0, i64 16
  %5 = load ptr, ptr %4, align 8, !tbaa !159
  %6 = add i64 %2, -1
  %or.cond.i = icmp ult i64 %6, 3
  br i1 %or.cond.i, label %9, label %7

7:                                                ; preds = %3
  %8 = tail call i32 @_PyArg_CheckPositional(ptr noundef nonnull @.str.25, i64 noundef %2, i64 noundef 1, i64 noundef 3) #8
  %.not.i = icmp eq i32 %8, 0
  br i1 %.not.i, label %gen_throw.exit, label %9

9:                                                ; preds = %7, %3
  %10 = icmp sgt i64 %2, 1
  br i1 %10, label %11, label %15

11:                                               ; preds = %9
  %12 = load ptr, ptr @PyExc_DeprecationWarning, align 8, !tbaa !32
  %13 = tail call i32 @PyErr_WarnEx(ptr noundef %12, ptr noundef nonnull @.str.31, i64 noundef 1) #8
  %14 = icmp slt i32 %13, 0
  br i1 %14, label %gen_throw.exit, label %15

15:                                               ; preds = %11, %9
  %16 = load ptr, ptr %1, align 8, !tbaa !32
  switch i64 %2, label %25 [
    i64 3, label %17
    i64 2, label %22
  ]

17:                                               ; preds = %15
  %18 = getelementptr i8, ptr %1, i64 8
  %19 = load ptr, ptr %18, align 8, !tbaa !32
  %20 = getelementptr i8, ptr %1, i64 16
  %21 = load ptr, ptr %20, align 8, !tbaa !32
  br label %25

22:                                               ; preds = %15
  %23 = getelementptr i8, ptr %1, i64 8
  %24 = load ptr, ptr %23, align 8, !tbaa !32
  br label %25

25:                                               ; preds = %22, %17, %15
  %.015.i = phi ptr [ %21, %17 ], [ null, %22 ], [ null, %15 ]
  %.0.i = phi ptr [ %19, %17 ], [ %24, %22 ], [ null, %15 ]
  %26 = tail call fastcc ptr @_gen_throw(ptr noundef %5, i32 noundef 1, ptr noundef %16, ptr noundef %.0.i, ptr noundef %.015.i)
  br label %gen_throw.exit

gen_throw.exit:                                   ; preds = %7, %11, %25
  %.016.i = phi ptr [ %26, %25 ], [ null, %7 ], [ null, %11 ]
  ret ptr %.016.i
}